(lp0
S'tarif_id'
p1
aS'suppress_flg'
p2
aS'limit_change_cd'
p3
aS'mail_stmt_send_flg'
p4
aS'email_stmt_send_flg'
p5
aS'credit_payment_protection_cd'
p6
aS'gender_cd'
p7
aS'education_level_cd'
p8
aS'marital_status_cd'
p9
aS'has_email'
p10
aS'ibank_register_flg'
p11
aS'pensioner_flg'
p12
aS'job_org_own_bsns_flg'
p13
aS'suppress_limit'
p14
aS'ib_status_cd'
p15
aS'cust_value_cd'
p16
aS'auth_type'
p17
aS'car_type_flg'
p18
aS'car_own_flg'
p19
a.