(lp0
S'sum_hum_wait_time_1m'
p1
aS'sum_hum_talk_time_1m'
p2
aS'max_hum_wait_time_1m'
p3
aS'max_hum_talk_time_1m'
p4
aS'sum_moves_cnt_1'
p5
aS'call_duration_1m'
p6
aS'max_call_duration_1m'
p7
aS'max_moves_cnt_1mtrans_debit_sum_prev_m'
p8
aS'trans_debit_sum_1m'
p9
aS'children_cnt'
p10
a.