(dp0
S'ib_status_cd'
p1
(dp2
VACT
p3
F0.11198458772138471
sVINA
p4
F0.09672287278355428
sVBLK
p5
F0.19619022197866776
sNF0.10587798910898903
ssS'auth_type'
p6
(dp7
V\ufffd\ufffd\ufffd\ufffd\ufffd\ufffd \ufffd\ufffd\ufffd\ufffd\ufffd \ufffd \ufffd\ufffd\ufffd\ufffd\ufffd\ufffd
p8
F0.13180680071026857
sVSMS-\ufffd\ufffd\ufffd \ufffd SMS-\ufffd\ufffd\ufffd\ufffd\ufffd\ufffd\ufffd\ufffd\ufffd\ufffd\ufffd\ufffd\ufffd\ufffd
p9
F0.12983334973122154
sVSMS-\ufffd\ufffd\ufffd\ufffd\ufffd\ufffd\ufffd\ufffd\ufffd\ufffd\ufffd\ufffd\ufffd\ufffd
p10
F0.13279445421327435
sVSMS-\ufffd\ufffd\ufffd
p11
F0.12910044691916056
sNF0.10587798910898903
ssS'pensioner_flg'
p12
(dp13
VY
p14
F0.10536512902042804
sNF0.10587798910898903
ssS'ibank_register_flg'
p15
(dp16
VY
p17
F0.1243840192681688
sVN
p18
F0.10528896251261943
sNF0.10587798910898903
ssS'suppress_flg'
p19
(dp20
VY
p21
F0.1638989913671483
sVN
p22
F0.10580469174504925
ssS'job_org_own_bsns_flg'
p23
(dp24
VY
p25
F0.08673786252474577
sVN
p26
F0.10723743217597453
ssS'marital_status_cd'
p27
(dp28
VMAR
p29
F0.10390753334798492
sVWID
p30
F0.09425038885426325
sVCIV
p31
F0.10040615000030474
sNF0.10587798910898903
sVDIV
p32
F0.10518400425720106
sVUNM
p33
F0.11439255262799129
ssS'education_level_cd'
p34
(dp35
VSCH
p36
F0.09632037607794887
sVACD
p37
F0.10972946281304458
sVGRD
p38
F0.11964762990218336
sVPGR
p39
F0.11762941591639797
sNF0.10587798910898903
sVUGR
p40
F0.1062386649532564
ssS'tarif_id'
p41
(dp42
V7.14
p43
F0.14520830113427285
sV7.15
p44
F0.12544027570893895
sV7.16
p45
F0.15478273871626017
sV7.17
p46
F0.149568732016308
sV7.10
p47
F0.11479879943458565
sV7.11
p48
F0.0984429510829906
sV7.12
p49
F0.1176118882173093
sV7.13
p50
F0.1490037349898907
sV7.18
p51
F0.1538717141185414
sV7.19
p52
F0.15447558382727677
sV12.3
p53
F0.11860657712773442
sV7.3
p54
F0.13454996449218326
sV7.0
p55
F0.14456131128057792
sV7.1
p56
F0.11712314352562209
sV7.6
p57
F0.15366541152007712
sV7.7
p58
F0.1576755461646834
sV7.4
p59
F0.1247479992031349
sV7.5
p60
F0.11927924220354882
sV12.9
p61
F0.1115636740422333
sV12.8
p62
F0.09918908939080927
sV10.1
p63
F0.06399291626677703
sV10.0
p64
F0.06468829701998322
sV10.3
p65
F0.11508204001957223
sV10.2
p66
F0.0753833052472472
sV1.12
p67
F0.12134345915700329
sV1.13
p68
F0.13182868736148162
sV10.7
p69
F0.09236032604491626
sV10.6
p70
F0.07058592580877537
sV10.9
p71
F0.06767814428746567
sV10.8
p72
F0.07953269725613485
sV1.18
p73
F0.11775316102809552
sV16.0
p74
F0.13236579736975085
sV14.4
p75
F0.10431582114698493
sV14.5
p76
F0.1202067610306682
sV7.2
p77
F0.13025814647607645
sV14.7
p78
F0.07421453367099096
sV14.6
p79
F0.09940388075062534
sV14.1
p80
F0.06769586573093828
sV14.0
p81
F0.09539399227667622
sV14.3
p82
F0.10633640877838403
sV12.2
p83
F0.10401764310741833
sV14.2
p84
F0.11571935601489948
sV14.9
p85
F0.08201418163339594
sV14.8
p86
F0.10817811524424616
sV12.0
p87
F0.11943600453832576
sV12.7
p88
F0.09989266335713078
sV12.6
p89
F0.11153203994110973
sV7.32
p90
F0.13769887995330468
sV7.33
p91
F0.13673771059412268
sV7.30
p92
F0.12906838515820002
sV7.31
p93
F0.12961481541601363
sV7.36
p94
F0.0957047148826074
sV7.37
p95
F0.11446284694265678
sV7.34
p96
F0.10742444033889446
sV7.35
p97
F0.10895477437111059
sV7.38
p98
F0.11775443136684188
sV7.39
p99
F0.09538430084015337
sV3.0
p100
F0.12279488201765482
sV3.1
p101
F0.09992021037095133
sV2.3
p102
F0.1195222525872931
sV2.2
p103
F0.11393886887734556
sV2.1
p104
F0.11378680352166615
sV2.0
p105
F0.12901522474534585
sV7.8
p106
F0.12942628018415223
sV2.5
p107
F0.10280884347197224
sV2.4
p108
F0.11337350911262395
sV7.9
p109
F0.14437171865944207
sV1.16
p110
F0.10898370838965095
sV7.29
p111
F0.14517652440450168
sV7.28
p112
F0.11578345372016852
sV1.17
p113
F0.10284765595341727
sV7.25
p114
F0.15123513920792306
sV7.24
p115
F0.15212897067544612
sV7.27
p116
F0.06297240433740875
sV7.26
p117
F0.10174681025143623
sV7.21
p118
F0.14389414035388237
sV7.20
p119
F0.15957021597938978
sV7.23
p120
F0.1433348343687131
sV7.22
p121
F0.1552754222223497
sV1.15
p122
F0.10330922963803303
sV10.5
p123
F0.14397444375801371
sV10.4
p124
F0.08416411587914077
sV1.10
p125
F0.11472138341765309
sV1.14
p126
F0.0856413242231098
sV7.50
p127
F0.027585638983260715
sV7.51
p128
F0.02371064959553567
sV7.52
p129
F0.028375343986276565
sV7.53
p130
F0.04404201745526995
sV8.1
p131
F0.133858556014906
sV8.3
p132
F0.10861821423711318
sV8.2
p133
F0.10757890761276802
sV8.4
p134
F0.09241977038699573
sV12.1
p135
F0.1144148600191115
sV7.43
p136
F0.1649985566577407
sV7.42
p137
F0.09816020230535846
sV7.41
p138
F0.09932095620306398
sV7.40
p139
F0.09873769076304308
sV7.46
p140
F0.16768303342881172
sV7.45
p141
F0.15789639972774083
sV7.44
p142
F0.16302834256356782
sV10.11
p143
F0.13487475227440998
sV10.10
p144
F0.10169582173399744
sV10.14
p145
F0.10572935230847524
sV18.1
p146
F0.1035500036260101
sV18.3
p147
F0.09584270093531712
sV18.2
p148
F0.10509176641758565
sV1.4
p149
F0.10278777793211966
sV1.5
p150
F0.10549992021001636
sV1.6
p151
F0.11086676718671604
sV1.7
p152
F0.11707809952187612
sV1.0
p153
F0.12430936091310411
sV1.2
p154
F0.12792304600893642
sV1.3
p155
F0.13298178839350588
sV1.8
p156
F0.12577534367833815
sV1.9
p157
F0.121163798220476
sV5.0
p158
F0.10509176641758564
sV4.0
p159
F0.11911110526130347
sV11.4
p160
F0.10509176641758564
sV12.5
p161
F0.10509176641758565
sV11.1
p162
F0.10509176641758565
sV17.1
p163
F0.11697776293605351
sV12.4
p164
F0.10509176641758564
sV15.1
p165
F0.33241318085177296
sV15.2
p166
F0.29603433825416176
sV15.3
p167
F0.30091454806322426
sV15.4
p168
F0.24419141565431546
sV15.5
p169
F0.28052471290651343
sV15.6
p170
F0.17022562735837266
ssS'cust_value_cd'
p171
(dp172
VVIP deposit
p173
F0.07811224312638945
sVAnti-VIP fraud
p174
F0.10941441079436556
sVVIP real
p175
F0.08380520522780804
sVVIP media
p176
F0.08540512169989807
sVAnti-VIP identity fraud
p177
F0.10329601570542923
sVAnti-VIP claim
p178
F0.11892670103297784
sVVIP other
p179
F0.10452456838032995
sVVIP official
p180
F0.08863962238002093
sVAnti-VIP gamer
p181
F0.19578156586280127
sVVIP public
p182
F0.10311939308900347
sNF0.10587798910898903
sVAnti-VIP other
p183
F0.1843908401760658
sVAnti-VIP critic
p184
F0.12459550087368622
sVVIP transactors
p185
F0.035388281035338864
ssS'car_type_flg'
p186
(dp187
VY
p188
F0.1058280371927254
sVN
p189
F0.1099009443789576
sNF0.10587798910898903
ssS'car_own_flg'
p190
(dp191
VY
p192
F0.10715539201915722
sVN
p193
F0.12229043525969199
sNF0.10587798910898903
ssS'mail_stmt_send_flg'
p194
(dp195
VY
p196
F0.07916062035453433
sVN
p197
F0.09519363321490865
sNF0.10587798910898903
ssS'gender_cd'
p198
(dp199
NF0.10587798910898903
sVM
p200
F0.09677048854808731
sVF
p201
F0.11385834322223085
ssS'suppress_limit'
p202
(dp203
VY
p204
F0.2978203071897876
sVN
p205
F0.10493899570966073
ssS'has_email'
p206
(dp207
VY
p208
F0.10859163290831246
sVN
p209
F0.10000468516036588
ssS'credit_payment_protection_cd'
p210
(dp211
VNON
p212
F0.14747072010236087
sVLIN
p213
F0.09301797059536113
ssS'email_stmt_send_flg'
p214
(dp215
VY
p216
F0.09604153309494522
sVN
p217
F0.0850558375830299
sNF0.10587798910898903
ssS'limit_change_cd'
p218
(dp219
VDWR
p220
F0.1256894820688336
sVKRZ
p221
F0.12310707012134789
sVDWP
p222
F0.12469039041460137
sVOTH
p223
F0.18589276639720725
sVFRE
p224
F0.12314668012508768
sVDWZ
p225
F0.22169866357800067
sVACT
p226
F0.08057127812739355
sVINA
p227
F0.15173429067218921
sVDEP
p228
F0.04276526723750387
sVBLK
p229
F0.142595131490077
sNF0.10587798910898903
sVTNL
p230
F0.11364006620232842
sVDEC
p231
F0.10270901059227583
sVDWN
p232
F0.21840471469762837
sVREG
p233
F0.1283904617473597
sVHGH
p234
F0.06069702012277063
ss.